; Function Attrs: mustprogress uwtable
define void @_ZN6google8protobuf8internal19ExtensionSerializerEPKhjjjPNS0_2io17CodedOutputStreamE(ptr noundef %0, i32 noundef %1, i32 noundef %2, i32 noundef %3, ptr noundef %4) local_unnamed_addr #4 {
  %6 = zext i32 %1 to i64
  %7 = getelementptr inbounds nuw i8, ptr %0, i64 %6
  %8 = getelementptr inbounds nuw i8, ptr %4, i64 64
  %9 = load ptr, ptr %8, align 8, !tbaa !17
  %10 = tail call noundef ptr @_ZNK6google8protobuf8internal12ExtensionSet18_InternalSerializeEiiPhPNS0_2io19EpsCopyOutputStreamE(ptr noundef nonnull align 8 dereferenceable(24) %7, i32 noundef %2, i32 noundef %3, ptr noundef %9, ptr noundef %4)
  store ptr %10, ptr %8, align 8, !tbaa !17
  ret void
}